target datalayout = "e-m:e-p270:32:32-p271:32:32-p272:64:64-i64:64-i128:128-f80:128-n8:16:32:64-S128"
target triple = "x86_64-unknown-linux-gnu"

%struct.QIOChannelWebsock = type { %struct.QIOChannel, ptr, %struct.Buffer, %struct.Buffer, %struct.Buffer, i64, i64, %union.QIOChannelWebsockMask, i32, ptr, i32, i8 }
%struct.QIOChannel = type { %struct.Object, i32, ptr, ptr, ptr, ptr, ptr, i8 }
%struct.Object = type { ptr, ptr, ptr, i32, ptr }
%struct.Buffer = type { ptr, i64, i64, i64, ptr }
%union.QIOChannelWebsockMask = type { i32 }
%struct.__va_list_tag = type { i32, i32, ptr, ptr }

; Function Attrs: nounwind sspstrong uwtable
define internal void @qio_channel_websock_handshake_send_res(ptr noundef %ioc, ptr noundef %resmsg, ...) #0 {
entry:
  %ioc.addr = alloca ptr, align 8
  %resmsg.addr = alloca ptr, align 8
  %vargs = alloca [1 x %struct.__va_list_tag], align 16
  %response = alloca ptr, align 8
  %responselen = alloca i64, align 8
  store ptr %ioc, ptr %ioc.addr, align 8
  store ptr %resmsg, ptr %resmsg.addr, align 8
  %arraydecay = getelementptr inbounds [1 x %struct.__va_list_tag], ptr %vargs, i64 0, i64 0
  call void @llvm.va_start(ptr %arraydecay)
  %0 = load ptr, ptr %resmsg.addr, align 8
  %arraydecay1 = getelementptr inbounds [1 x %struct.__va_list_tag], ptr %vargs, i64 0, i64 0
  %call = call noalias ptr @g_strdup_vprintf(ptr noundef %0, ptr noundef %arraydecay1)
  store ptr %call, ptr %response, align 8
  %1 = load ptr, ptr %response, align 8
  %call2 = call i64 @strlen(ptr noundef %1) #11
  store i64 %call2, ptr %responselen, align 8
  %2 = load ptr, ptr %ioc.addr, align 8
  %encoutput = getelementptr inbounds %struct.QIOChannelWebsock, ptr %2, i32 0, i32 3
  %3 = load i64, ptr %responselen, align 8
  call void @buffer_reserve(ptr noundef %encoutput, i64 noundef %3)
  %4 = load ptr, ptr %ioc.addr, align 8
  %encoutput3 = getelementptr inbounds %struct.QIOChannelWebsock, ptr %4, i32 0, i32 3
  %5 = load ptr, ptr %response, align 8
  %6 = load i64, ptr %responselen, align 8
  call void @buffer_append(ptr noundef %encoutput3, ptr noundef %5, i64 noundef %6)
  %7 = load ptr, ptr %response, align 8
  call void @g_free(ptr noundef %7)
  %arraydecay4 = getelementptr inbounds [1 x %struct.__va_list_tag], ptr %vargs, i64 0, i64 0
  call void @llvm.va_end(ptr %arraydecay4)
  ret void
}