; Function Attrs: nounwind sspstrong uwtable
define internal void @qio_channel_websock_handshake_send_res(ptr noundef %ioc, ptr noundef %resmsg, ...) unnamed_addr #0 {
entry:
  %vargs = alloca [1 x %struct.__va_list_tag], align 16
  call void @llvm.va_start.p0(ptr nonnull %vargs)
  %call = call noalias ptr @g_strdup_vprintf(ptr noundef %resmsg, ptr noundef nonnull %vargs) #15
  %call2 = call i64 @strlen(ptr noundef nonnull dereferenceable(1) %call) #16
  %encoutput = getelementptr inbounds nuw i8, ptr %ioc, i64 144
  call void @buffer_reserve(ptr noundef nonnull %encoutput, i64 noundef %call2) #15
  call void @buffer_append(ptr noundef nonnull %encoutput, ptr noundef nonnull %call, i64 noundef %call2) #15
  call void @g_free(ptr noundef nonnull %call) #15
  call void @llvm.va_end.p0(ptr nonnull %vargs)
  ret void
}